target datalayout = "e-m:e-p270:32:32-p271:32:32-p272:64:64-i64:64-i128:128-f80:128-n8:16:32:64-S128"
target triple = "x86_64-pc-linux-gnu"

%struct.IPpmd7 = type { ptr, ptr, ptr, ptr, ptr, ptr, ptr, ptr, ptr, ptr, ptr, ptr }
%struct.archive_read = type { %struct.archive, ptr, i32, i64, i64, %struct.archive_read_client, [16 x %struct.archive_read_filter_bidder], ptr, i32, i64, i32, i32, [16 x %struct.archive_format_descriptor], ptr, ptr, ptr, %struct.anon }
%struct.archive = type { i32, i32, ptr, i32, ptr, i32, i32, ptr, %struct.archive_string, ptr, i32, i32, ptr, ptr, i64, i64, i64, i8, i64 }
%struct.archive_string = type { ptr, i64, i64 }
%struct.archive_read_client = type { ptr, ptr, ptr, ptr, ptr, ptr, i32, i32, i64, ptr }
%struct.archive_read_filter_bidder = type { ptr, ptr, ptr }
%struct.archive_format_descriptor = type { ptr, ptr, ptr, ptr, ptr, ptr, ptr, ptr, ptr, ptr, ptr }
%struct.anon = type { ptr, ptr, i32, ptr, ptr }
%struct._7zip = type { %struct._7z_stream_info, i32, i32, i64, i64, i64, i64, i64, i64, ptr, ptr, ptr, i64, i64, i64, i8, ptr, ptr, i64, i64, i64, i32, i64, i32, i32, i64, i64, i64, i64, %struct.lzma_stream, i32, %struct.bz_stream, i32, %struct.z_stream_s, i32, ptr, i32, i32, %struct.CPpmd7, %struct.CPpmd7z_RangeDec, %struct.IByteIn, %struct.anon.0, i32, i32, i64, [4 x i8], i64, i32, i32, i64, [3 x ptr], [3 x i64], [3 x i64], ptr, i64, i64, i64, [258 x i16], i8, i32, i32, i64, ptr, [64 x i8], i32 }
%struct._7z_stream_info = type { %struct._7z_pack_info, %struct._7z_coders_info, %struct._7z_substream_info }
%struct._7z_pack_info = type { i64, i64, ptr, %struct._7z_digests, ptr }
%struct._7z_digests = type { ptr, ptr }
%struct._7z_coders_info = type { i64, ptr, i64 }
%struct._7z_substream_info = type { i64, ptr, ptr, ptr }
%struct.lzma_stream = type { ptr, i64, i64, ptr, i64, i64, ptr, ptr, ptr, ptr, ptr, ptr, i64, i64, i64, i64, i32, i32 }
%struct.bz_stream = type { ptr, i32, i32, i32, ptr, i32, i32, i32, ptr, ptr, ptr, ptr }
%struct.z_stream_s = type { ptr, i32, i64, ptr, i32, i64, ptr, ptr, ptr, ptr, ptr, i32, i64, i64 }
%struct.CPpmd7 = type { ptr, ptr, ptr, i32, i32, i32, i32, i32, i32, i32, i32, i32, ptr, ptr, ptr, ptr, ptr, i32, [38 x i8], [128 x i8], [38 x i32], [256 x i8], [256 x i8], [256 x i8], %struct.CPpmd_See, [25 x [16 x %struct.CPpmd_See]], [128 x [64 x i16]] }
%struct.CPpmd_See = type { i16, i8, i8 }
%struct.CPpmd7z_RangeDec = type { %struct.IPpmd7_RangeDec, i32, i32, i32, i32, ptr }
%struct.IPpmd7_RangeDec = type { ptr, ptr, ptr }
%struct.IByteIn = type { ptr, ptr }
%struct.anon.0 = type { ptr, i64, i64, i64, ptr, i64, i64, i32 }

@__archive_ppmd7_functions = external constant %struct.IPpmd7, align 8
@.str.62 = private unnamed_addr constant [38 x i8] c"Failed to clean up bzip2 decompressor\00", align 1
@.str.63 = private unnamed_addr constant [37 x i8] c"Failed to clean up zlib decompressor\00", align 1

; Function Attrs: nounwind uwtable
define internal i32 @free_decompression(ptr noundef %0, ptr noundef %1) #0 {
  %3 = alloca ptr, align 8
  %4 = alloca ptr, align 8
  %5 = alloca i32, align 4
  store ptr %0, ptr %3, align 8, !tbaa !9
  store ptr %1, ptr %4, align 8, !tbaa !13
  call void @llvm.lifetime.start.p0(i64 4, ptr %5) #12
  store i32 0, ptr %5, align 4, !tbaa !11
  %6 = load ptr, ptr %4, align 8, !tbaa !13
  %7 = getelementptr inbounds nuw %struct._7zip, ptr %6, i32 0, i32 30
  %8 = load i32, ptr %7, align 8, !tbaa !185
  %9 = icmp ne i32 %8, 0
  br i1 %9, label %10, label %13

10:                                               ; preds = %2
  %11 = load ptr, ptr %4, align 8, !tbaa !13
  %12 = getelementptr inbounds nuw %struct._7zip, ptr %11, i32 0, i32 29
  call void @lzma_end(ptr noundef %12) #12
  br label %13

13:                                               ; preds = %10, %2
  %14 = load ptr, ptr %4, align 8, !tbaa !13
  %15 = getelementptr inbounds nuw %struct._7zip, ptr %14, i32 0, i32 32
  %16 = load i32, ptr %15, align 8, !tbaa !190
  %17 = icmp ne i32 %16, 0
  br i1 %17, label %18, label %29

18:                                               ; preds = %13
  %19 = load ptr, ptr %4, align 8, !tbaa !13
  %20 = getelementptr inbounds nuw %struct._7zip, ptr %19, i32 0, i32 31
  %21 = call i32 @BZ2_bzDecompressEnd(ptr noundef %20)
  %22 = icmp ne i32 %21, 0
  br i1 %22, label %23, label %26

23:                                               ; preds = %18
  %24 = load ptr, ptr %3, align 8, !tbaa !9
  %25 = getelementptr inbounds nuw %struct.archive_read, ptr %24, i32 0, i32 0
  call void (ptr, i32, ptr, ...) @archive_set_error(ptr noundef %25, i32 noundef -1, ptr noundef @.str.62)
  store i32 -30, ptr %5, align 4, !tbaa !11
  br label %26

26:                                               ; preds = %23, %18
  %27 = load ptr, ptr %4, align 8, !tbaa !13
  %28 = getelementptr inbounds nuw %struct._7zip, ptr %27, i32 0, i32 32
  store i32 0, ptr %28, align 8, !tbaa !190
  br label %29

29:                                               ; preds = %26, %13
  %30 = load ptr, ptr %4, align 8, !tbaa !13
  %31 = getelementptr inbounds nuw %struct._7zip, ptr %30, i32 0, i32 34
  %32 = load i32, ptr %31, align 8, !tbaa !311
  %33 = icmp ne i32 %32, 0
  br i1 %33, label %34, label %45

34:                                               ; preds = %29
  %35 = load ptr, ptr %4, align 8, !tbaa !13
  %36 = getelementptr inbounds nuw %struct._7zip, ptr %35, i32 0, i32 33
  %37 = call i32 @cm_zlib_inflateEnd(ptr noundef %36)
  %38 = icmp ne i32 %37, 0
  br i1 %38, label %39, label %42

39:                                               ; preds = %34
  %40 = load ptr, ptr %3, align 8, !tbaa !9
  %41 = getelementptr inbounds nuw %struct.archive_read, ptr %40, i32 0, i32 0
  call void (ptr, i32, ptr, ...) @archive_set_error(ptr noundef %41, i32 noundef -1, ptr noundef @.str.63)
  store i32 -30, ptr %5, align 4, !tbaa !11
  br label %42

42:                                               ; preds = %39, %34
  %43 = load ptr, ptr %4, align 8, !tbaa !13
  %44 = getelementptr inbounds nuw %struct._7zip, ptr %43, i32 0, i32 34
  store i32 0, ptr %44, align 8, !tbaa !311
  br label %45

45:                                               ; preds = %42, %29
  %46 = load ptr, ptr %4, align 8, !tbaa !13
  %47 = getelementptr inbounds nuw %struct._7zip, ptr %46, i32 0, i32 36
  %48 = load i32, ptr %47, align 8, !tbaa !310
  %49 = icmp ne i32 %48, 0
  br i1 %49, label %50, label %55

50:                                               ; preds = %45
  %51 = load ptr, ptr %4, align 8, !tbaa !13
  %52 = getelementptr inbounds nuw %struct._7zip, ptr %51, i32 0, i32 35
  %53 = load ptr, ptr %52, align 8, !tbaa !203
  %54 = call i64 @ZSTD_freeDStream(ptr noundef %53)
  br label %55

55:                                               ; preds = %50, %45
  %56 = load ptr, ptr %4, align 8, !tbaa !13
  %57 = getelementptr inbounds nuw %struct._7zip, ptr %56, i32 0, i32 42
  %58 = load i32, ptr %57, align 8, !tbaa !204
  %59 = icmp ne i32 %58, 0
  br i1 %59, label %60, label %66

60:                                               ; preds = %55
  %61 = load ptr, ptr getelementptr inbounds nuw (%struct.IPpmd7, ptr @__archive_ppmd7_functions, i32 0, i32 2), align 8, !tbaa !314
  %62 = load ptr, ptr %4, align 8, !tbaa !13
  %63 = getelementptr inbounds nuw %struct._7zip, ptr %62, i32 0, i32 38
  call void %61(ptr noundef %63)
  %64 = load ptr, ptr %4, align 8, !tbaa !13
  %65 = getelementptr inbounds nuw %struct._7zip, ptr %64, i32 0, i32 42
  store i32 0, ptr %65, align 8, !tbaa !204
  br label %66

66:                                               ; preds = %60, %55
  %67 = load i32, ptr %5, align 4, !tbaa !11
  call void @llvm.lifetime.end.p0(i64 4, ptr %5) #12
  ret i32 %67
}

; Function Attrs: nounwind uwtable
define internal i32 @archive_read_format_7zip_cleanup(ptr noundef %0) #0 {
  %2 = alloca ptr, align 8
  %3 = alloca ptr, align 8
  store ptr %0, ptr %2, align 8, !tbaa !9
  call void @llvm.lifetime.start.p0(i64 8, ptr %3) #12
  %4 = load ptr, ptr %2, align 8, !tbaa !9
  %5 = getelementptr inbounds nuw %struct.archive_read, ptr %4, i32 0, i32 13
  %6 = load ptr, ptr %5, align 8, !tbaa !51
  %7 = getelementptr inbounds nuw %struct.archive_format_descriptor, ptr %6, i32 0, i32 0
  %8 = load ptr, ptr %7, align 8, !tbaa !64
  store ptr %8, ptr %3, align 8, !tbaa !13
  %9 = load ptr, ptr %3, align 8, !tbaa !13
  %10 = getelementptr inbounds nuw %struct._7zip, ptr %9, i32 0, i32 0
  call void @free_StreamsInfo(ptr noundef %10)
  %11 = load ptr, ptr %3, align 8, !tbaa !13
  %12 = getelementptr inbounds nuw %struct._7zip, ptr %11, i32 0, i32 9
  %13 = load ptr, ptr %12, align 8, !tbaa !69
  call void @free(ptr noundef %13) #12
  %14 = load ptr, ptr %3, align 8, !tbaa !13
  %15 = getelementptr inbounds nuw %struct._7zip, ptr %14, i32 0, i32 11
  %16 = load ptr, ptr %15, align 8, !tbaa !109
  call void @free(ptr noundef %16) #12
  %17 = load ptr, ptr %2, align 8, !tbaa !9
  %18 = load ptr, ptr %3, align 8, !tbaa !13
  %19 = call i32 @free_decompression(ptr noundef %17, ptr noundef %18)
  %20 = load ptr, ptr %3, align 8, !tbaa !13
  %21 = getelementptr inbounds nuw %struct._7zip, ptr %20, i32 0, i32 16
  %22 = load ptr, ptr %21, align 8, !tbaa !110
  call void @free(ptr noundef %22) #12
  %23 = load ptr, ptr %3, align 8, !tbaa !13
  %24 = getelementptr inbounds nuw %struct._7zip, ptr %23, i32 0, i32 50
  %25 = getelementptr inbounds [3 x ptr], ptr %24, i64 0, i64 0
  %26 = load ptr, ptr %25, align 8, !tbaa !43
  call void @free(ptr noundef %26) #12
  %27 = load ptr, ptr %3, align 8, !tbaa !13
  %28 = getelementptr inbounds nuw %struct._7zip, ptr %27, i32 0, i32 50
  %29 = getelementptr inbounds [3 x ptr], ptr %28, i64 0, i64 1
  %30 = load ptr, ptr %29, align 8, !tbaa !43
  call void @free(ptr noundef %30) #12
  %31 = load ptr, ptr %3, align 8, !tbaa !13
  %32 = getelementptr inbounds nuw %struct._7zip, ptr %31, i32 0, i32 50
  %33 = getelementptr inbounds [3 x ptr], ptr %32, i64 0, i64 2
  %34 = load ptr, ptr %33, align 8, !tbaa !43
  call void @free(ptr noundef %34) #12
  %35 = load ptr, ptr %3, align 8, !tbaa !13
  %36 = getelementptr inbounds nuw %struct._7zip, ptr %35, i32 0, i32 53
  %37 = load ptr, ptr %36, align 8, !tbaa !111
  call void @free(ptr noundef %37) #12
  %38 = load ptr, ptr %3, align 8, !tbaa !13
  call void @free(ptr noundef %38) #12
  %39 = load ptr, ptr %2, align 8, !tbaa !9
  %40 = getelementptr inbounds nuw %struct.archive_read, ptr %39, i32 0, i32 13
  %41 = load ptr, ptr %40, align 8, !tbaa !51
  %42 = getelementptr inbounds nuw %struct.archive_format_descriptor, ptr %41, i32 0, i32 0
  store ptr null, ptr %42, align 8, !tbaa !64
  call void @llvm.lifetime.end.p0(i64 8, ptr %3) #12
  ret i32 0
}