; Function Attrs: nounwind uwtable
define internal noundef i32 @archive_read_format_7zip_cleanup(ptr noundef %0) #0 {
  %2 = getelementptr inbounds nuw i8, ptr %0, i64 2072
  %3 = load ptr, ptr %2, align 8, !tbaa !41
  %4 = load ptr, ptr %3, align 8, !tbaa !55
  tail call fastcc void @free_StreamsInfo(ptr noundef %4)
  %5 = getelementptr inbounds nuw i8, ptr %4, i64 160
  %6 = load ptr, ptr %5, align 8, !tbaa !59
  tail call void @free(ptr noundef %6) #17
  %7 = getelementptr inbounds nuw i8, ptr %4, i64 176
  %8 = load ptr, ptr %7, align 8, !tbaa !117
  tail call void @free(ptr noundef %8) #17
  %9 = getelementptr inbounds nuw i8, ptr %4, i64 448
  %10 = load i32, ptr %9, align 8, !tbaa !118
  %.not.i = icmp eq i32 %10, 0
  br i1 %.not.i, label %13, label %11

11:                                               ; preds = %1
  %12 = getelementptr inbounds nuw i8, ptr %4, i64 312
  tail call void @lzma_end(ptr noundef nonnull %12) #17
  br label %13

13:                                               ; preds = %11, %1
  %14 = getelementptr inbounds nuw i8, ptr %4, i64 536
  %15 = load i32, ptr %14, align 8, !tbaa !119
  %.not15.i = icmp eq i32 %15, 0
  br i1 %.not15.i, label %21, label %16

16:                                               ; preds = %13
  %17 = getelementptr inbounds nuw i8, ptr %4, i64 456
  %18 = tail call i32 @BZ2_bzDecompressEnd(ptr noundef nonnull %17) #17
  %.not16.i = icmp eq i32 %18, 0
  br i1 %.not16.i, label %20, label %19

19:                                               ; preds = %16
  tail call void (ptr, i32, ptr, ...) @archive_set_error(ptr noundef nonnull %0, i32 noundef -1, ptr noundef nonnull @.str.62) #17
  br label %20

20:                                               ; preds = %19, %16
  store i32 0, ptr %14, align 8, !tbaa !119
  br label %21

21:                                               ; preds = %20, %13
  %22 = getelementptr inbounds nuw i8, ptr %4, i64 656
  %23 = load i32, ptr %22, align 8, !tbaa !120
  %.not17.i = icmp eq i32 %23, 0
  br i1 %.not17.i, label %29, label %24

24:                                               ; preds = %21
  %25 = getelementptr inbounds nuw i8, ptr %4, i64 544
  %26 = tail call i32 @cm_zlib_inflateEnd(ptr noundef nonnull %25) #17
  %.not18.i = icmp eq i32 %26, 0
  br i1 %.not18.i, label %28, label %27

27:                                               ; preds = %24
  tail call void (ptr, i32, ptr, ...) @archive_set_error(ptr noundef nonnull %0, i32 noundef -1, ptr noundef nonnull @.str.63) #17
  br label %28

28:                                               ; preds = %27, %24
  store i32 0, ptr %22, align 8, !tbaa !120
  br label %29

29:                                               ; preds = %28, %21
  %30 = getelementptr inbounds nuw i8, ptr %4, i64 672
  %31 = load i32, ptr %30, align 8, !tbaa !121
  %.not19.i = icmp eq i32 %31, 0
  br i1 %.not19.i, label %36, label %32

32:                                               ; preds = %29
  %33 = getelementptr inbounds nuw i8, ptr %4, i64 664
  %34 = load ptr, ptr %33, align 8, !tbaa !122
  %35 = tail call i64 @ZSTD_freeDStream(ptr noundef %34) #17
  br label %36

36:                                               ; preds = %32, %29
  %37 = getelementptr inbounds nuw i8, ptr %4, i64 19992
  %38 = load i32, ptr %37, align 8, !tbaa !123
  %.not20.i = icmp eq i32 %38, 0
  br i1 %.not20.i, label %free_decompression.exit, label %39

39:                                               ; preds = %36
  %40 = load ptr, ptr getelementptr inbounds nuw (i8, ptr @__archive_ppmd7_functions, i64 16), align 8, !tbaa !124
  %41 = getelementptr inbounds nuw i8, ptr %4, i64 680
  tail call void %40(ptr noundef nonnull %41) #17
  store i32 0, ptr %37, align 8, !tbaa !123
  br label %free_decompression.exit

free_decompression.exit:                          ; preds = %36, %39
  %42 = getelementptr inbounds nuw i8, ptr %4, i64 216
  %43 = load ptr, ptr %42, align 8, !tbaa !126
  tail call void @free(ptr noundef %43) #17
  %44 = getelementptr inbounds nuw i8, ptr %4, i64 20040
  %45 = load ptr, ptr %44, align 8, !tbaa !127
  tail call void @free(ptr noundef %45) #17
  %46 = getelementptr inbounds nuw i8, ptr %4, i64 20048
  %47 = load ptr, ptr %46, align 8, !tbaa !127
  tail call void @free(ptr noundef %47) #17
  %48 = getelementptr inbounds nuw i8, ptr %4, i64 20056
  %49 = load ptr, ptr %48, align 8, !tbaa !127
  tail call void @free(ptr noundef %49) #17
  %50 = getelementptr inbounds nuw i8, ptr %4, i64 20112
  %51 = load ptr, ptr %50, align 8, !tbaa !128
  tail call void @free(ptr noundef %51) #17
  tail call void @free(ptr noundef nonnull %4) #17
  %52 = load ptr, ptr %2, align 8, !tbaa !41
  store ptr null, ptr %52, align 8, !tbaa !55
  ret i32 0
}